target datalayout = "e-m:e-p270:32:32-p271:32:32-p272:64:64-i64:64-i128:128-f80:128-n8:16:32:64-S128"
target triple = "x86_64-pc-linux-gnu"

%union.ListCell = type { ptr }
%struct.List = type { i32, i32, i32, ptr, [0 x %union.ListCell] }
%struct.Expr = type { i32 }
%struct.Node = type { i32 }
%struct.convert_testexpr_context = type { ptr, ptr }
%struct.Param = type { %struct.Expr, i32, i32, i32, i32, i32, i32 }

@.str.1 = private unnamed_addr constant [12 x i8] c"subselect.c\00", align 1
@.str.5 = private unnamed_addr constant [32 x i8] c"unexpected PARAM_SUBLINK ID: %d\00", align 1
@__func__.convert_testexpr_mutator = private unnamed_addr constant [25 x i8] c"convert_testexpr_mutator\00", align 1

; Function Attrs: inlinehint nounwind uwtable
define internal ptr @list_nth_cell(ptr noundef %0, i32 noundef %1) #5 {
  %3 = alloca ptr, align 8
  %4 = alloca i32, align 4
  store ptr %0, ptr %3, align 8
  store i32 %1, ptr %4, align 4
  %5 = load ptr, ptr %3, align 8
  %6 = getelementptr inbounds nuw %struct.List, ptr %5, i32 0, i32 3
  %7 = load ptr, ptr %6, align 8
  %8 = load i32, ptr %4, align 4
  %9 = sext i32 %8 to i64
  %10 = getelementptr inbounds %union.ListCell, ptr %7, i64 %9
  ret ptr %10
}

; Function Attrs: inlinehint nounwind uwtable
define internal ptr @list_nth(ptr noundef %0, i32 noundef %1) #5 {
  %3 = alloca ptr, align 8
  %4 = alloca i32, align 4
  store ptr %0, ptr %3, align 8
  store i32 %1, ptr %4, align 4
  %5 = load ptr, ptr %3, align 8
  %6 = load i32, ptr %4, align 4
  %7 = call ptr @list_nth_cell(ptr noundef %5, i32 noundef %6)
  %8 = load ptr, ptr %7, align 8
  ret ptr %8
}

; Function Attrs: inlinehint nounwind uwtable
define internal i32 @list_length(ptr noundef %0) #5 {
  %2 = alloca ptr, align 8
  store ptr %0, ptr %2, align 8
  %3 = load ptr, ptr %2, align 8
  %4 = icmp ne ptr %3, null
  br i1 %4, label %5, label %9

5:                                                ; preds = %1
  %6 = load ptr, ptr %2, align 8
  %7 = getelementptr inbounds nuw %struct.List, ptr %6, i32 0, i32 1
  %8 = load i32, ptr %7, align 4
  br label %10

9:                                                ; preds = %1
  br label %10

10:                                               ; preds = %9, %5
  %11 = phi i32 [ %8, %5 ], [ 0, %9 ]
  ret i32 %11
}

; Function Attrs: nounwind uwtable
define internal ptr @convert_testexpr_mutator(ptr noundef %0, ptr noundef %1) #0 {
  %3 = alloca ptr, align 8
  %4 = alloca ptr, align 8
  %5 = alloca ptr, align 8
  %6 = alloca ptr, align 8
  %7 = alloca i32, align 4
  store ptr %0, ptr %4, align 8
  store ptr %1, ptr %5, align 8
  %8 = load ptr, ptr %4, align 8
  %9 = icmp eq ptr %8, null
  br i1 %9, label %10, label %11

10:                                               ; preds = %2
  store ptr null, ptr %3, align 8
  br label %75

11:                                               ; preds = %2
  %12 = load ptr, ptr %4, align 8
  %13 = getelementptr inbounds nuw %struct.Node, ptr %12, i32 0, i32 0
  %14 = load i32, ptr %13, align 4
  %15 = icmp eq i32 %14, 8
  br i1 %15, label %16, label %64

16:                                               ; preds = %11
  call void @llvm.lifetime.start.p0(i64 8, ptr %6) #8
  %17 = load ptr, ptr %4, align 8
  store ptr %17, ptr %6, align 8
  %18 = load ptr, ptr %6, align 8
  %19 = getelementptr inbounds nuw %struct.Param, ptr %18, i32 0, i32 1
  %20 = load i32, ptr %19, align 4
  %21 = icmp eq i32 %20, 2
  br i1 %21, label %22, label %60

22:                                               ; preds = %16
  %23 = load ptr, ptr %6, align 8
  %24 = getelementptr inbounds nuw %struct.Param, ptr %23, i32 0, i32 2
  %25 = load i32, ptr %24, align 4
  %26 = icmp sle i32 %25, 0
  br i1 %26, label %36, label %27

27:                                               ; preds = %22
  %28 = load ptr, ptr %6, align 8
  %29 = getelementptr inbounds nuw %struct.Param, ptr %28, i32 0, i32 2
  %30 = load i32, ptr %29, align 4
  %31 = load ptr, ptr %5, align 8
  %32 = getelementptr inbounds nuw %struct.convert_testexpr_context, ptr %31, i32 0, i32 1
  %33 = load ptr, ptr %32, align 8
  %34 = call i32 @list_length(ptr noundef %33)
  %35 = icmp sgt i32 %30, %34
  br i1 %35, label %36, label %50

36:                                               ; preds = %27, %22
  br label %37

37:                                               ; preds = %36
  br i1 true, label %38, label %40

38:                                               ; preds = %37
  %39 = call zeroext i1 @errstart_cold(i32 noundef 21, ptr noundef null) #9
  br i1 %39, label %42, label %47

40:                                               ; preds = %37
  %41 = call zeroext i1 @errstart(i32 noundef 21, ptr noundef null)
  br i1 %41, label %42, label %47

42:                                               ; preds = %40, %38
  %43 = load ptr, ptr %6, align 8
  %44 = getelementptr inbounds nuw %struct.Param, ptr %43, i32 0, i32 2
  %45 = load i32, ptr %44, align 4
  %46 = call i32 (ptr, ...) @errmsg_internal(ptr noundef @.str.5, i32 noundef %45)
  call void @errfinish(ptr noundef @.str.1, i32 noundef 669, ptr noundef @__func__.convert_testexpr_mutator)
  br label %47

47:                                               ; preds = %42, %40, %38
  unreachable

48:                                               ; No predecessors!
  br label %49

49:                                               ; preds = %48
  br label %50

50:                                               ; preds = %49, %27
  %51 = load ptr, ptr %5, align 8
  %52 = getelementptr inbounds nuw %struct.convert_testexpr_context, ptr %51, i32 0, i32 1
  %53 = load ptr, ptr %52, align 8
  %54 = load ptr, ptr %6, align 8
  %55 = getelementptr inbounds nuw %struct.Param, ptr %54, i32 0, i32 2
  %56 = load i32, ptr %55, align 4
  %57 = sub i32 %56, 1
  %58 = call ptr @list_nth(ptr noundef %53, i32 noundef %57)
  %59 = call ptr @copyObjectImpl(ptr noundef %58)
  store ptr %59, ptr %3, align 8
  store i32 1, ptr %7, align 4
  br label %61

60:                                               ; preds = %16
  store i32 0, ptr %7, align 4
  br label %61

61:                                               ; preds = %60, %50
  call void @llvm.lifetime.end.p0(i64 8, ptr %6) #8
  %62 = load i32, ptr %7, align 4
  switch i32 %62, label %77 [
    i32 0, label %63
    i32 1, label %75
  ]

63:                                               ; preds = %61
  br label %64

64:                                               ; preds = %63, %11
  %65 = load ptr, ptr %4, align 8
  %66 = getelementptr inbounds nuw %struct.Node, ptr %65, i32 0, i32 0
  %67 = load i32, ptr %66, align 4
  %68 = icmp eq i32 %67, 22
  br i1 %68, label %69, label %71

69:                                               ; preds = %64
  %70 = load ptr, ptr %4, align 8
  store ptr %70, ptr %3, align 8
  br label %75

71:                                               ; preds = %64
  %72 = load ptr, ptr %4, align 8
  %73 = load ptr, ptr %5, align 8
  %74 = call ptr @expression_tree_mutator_impl(ptr noundef %72, ptr noundef @convert_testexpr_mutator, ptr noundef %73)
  store ptr %74, ptr %3, align 8
  br label %75

75:                                               ; preds = %71, %69, %61, %10
  %76 = load ptr, ptr %3, align 8
  ret ptr %76

77:                                               ; preds = %61
  unreachable
}