; Function Attrs: nounwind uwtable
define internal ptr @convert_testexpr_mutator(ptr noundef %0, ptr noundef %1) #0 {
  %3 = icmp eq ptr %0, null
  br i1 %3, label %31, label %4

4:                                                ; preds = %2
  %5 = load i32, ptr %0, align 4
  switch i32 %5, label %.thread.thread [
    i32 8, label %6
    i32 22, label %31
  ]

6:                                                ; preds = %4
  %7 = getelementptr inbounds nuw i8, ptr %0, i64 4
  %8 = load i32, ptr %7, align 4
  %9 = icmp eq i32 %8, 2
  br i1 %9, label %10, label %.thread.thread

10:                                               ; preds = %6
  %11 = getelementptr inbounds nuw i8, ptr %0, i64 8
  %12 = load i32, ptr %11, align 4
  %13 = icmp slt i32 %12, 1
  br i1 %13, label %list_length.exit.thread, label %14

14:                                               ; preds = %10
  %15 = getelementptr inbounds nuw i8, ptr %1, i64 8
  %16 = load ptr, ptr %15, align 8
  %.not.i = icmp eq ptr %16, null
  br i1 %.not.i, label %list_length.exit.thread, label %list_length.exit

list_length.exit:                                 ; preds = %14
  %17 = getelementptr inbounds nuw i8, ptr %16, i64 4
  %18 = load i32, ptr %17, align 4
  %19 = icmp sgt i32 %12, %18
  br i1 %19, label %list_length.exit.thread, label %23

list_length.exit.thread:                          ; preds = %14, %list_length.exit, %10
  %20 = tail call zeroext i1 @errstart_cold(i32 noundef 21, ptr noundef null) #11
  tail call void @llvm.assume(i1 %20)
  %21 = load i32, ptr %11, align 4
  %22 = tail call i32 (ptr, ...) @errmsg_internal(ptr noundef nonnull @.str.5, i32 noundef %21) #10
  tail call void @errfinish(ptr noundef nonnull @.str.1, i32 noundef 669, ptr noundef nonnull @__func__.convert_testexpr_mutator) #10
  unreachable

23:                                               ; preds = %list_length.exit
  %24 = getelementptr i8, ptr %16, i64 16
  %.val = load ptr, ptr %24, align 8
  %25 = zext nneg i32 %12 to i64
  %26 = getelementptr %union.ListCell, ptr %.val, i64 %25
  %27 = getelementptr i8, ptr %26, i64 -8
  %28 = load ptr, ptr %27, align 8
  %29 = tail call ptr @copyObjectImpl(ptr noundef %28) #10
  br label %31

.thread.thread:                                   ; preds = %4, %6
  %30 = tail call ptr @expression_tree_mutator_impl(ptr noundef nonnull %0, ptr noundef nonnull @convert_testexpr_mutator, ptr noundef %1) #10
  br label %31

31:                                               ; preds = %4, %23, %2, %.thread.thread
  %.015 = phi ptr [ %29, %23 ], [ %30, %.thread.thread ], [ null, %2 ], [ %0, %4 ]
  ret ptr %.015
}